; Function Attrs: mustprogress nofree norecurse nosync nounwind willreturn memory(argmem: readwrite) uwtable
define internal range(i32 -1, 60) i32 @element3(ptr noundef captures(none) %0, i32 noundef %1, ptr readnone captures(none) %2, ptr readnone captures(none) %3, ptr readnone captures(none) %4) #2 {
  switch i32 %1, label %11 [
    i32 15, label %common.exit
    i32 24, label %6
    i32 36, label %8
    i32 21, label %10
  ]

6:                                                ; preds = %5
  store ptr @declClose, ptr %0, align 8, !tbaa !3
  %7 = getelementptr inbounds nuw i8, ptr %0, i64 12
  store i32 39, ptr %7, align 4, !tbaa !15
  br label %common.exit

8:                                                ; preds = %5
  store ptr @declClose, ptr %0, align 8, !tbaa !3
  %9 = getelementptr inbounds nuw i8, ptr %0, i64 12
  store i32 39, ptr %9, align 4, !tbaa !15
  br label %common.exit

10:                                               ; preds = %5
  store ptr @element4, ptr %0, align 8, !tbaa !3
  br label %common.exit

11:                                               ; preds = %5
  %12 = getelementptr inbounds nuw i8, ptr %0, i64 20
  %13 = load i32, ptr %12, align 4, !tbaa !9
  %14 = icmp eq i32 %13, 0
  %15 = icmp eq i32 %1, 28
  %or.cond.i = and i1 %15, %14
  br i1 %or.cond.i, label %common.exit, label %16

16:                                               ; preds = %11
  store ptr @error, ptr %0, align 8, !tbaa !3
  br label %common.exit

common.exit:                                      ; preds = %16, %11, %5, %10, %8, %6
  %.0 = phi i32 [ 39, %10 ], [ 46, %8 ], [ 45, %6 ], [ 39, %5 ], [ -1, %16 ], [ 59, %11 ]
  ret i32 %.0
}